ccopy_reg
_reconstructor
p0
(c__main__
Trie
p1
c__builtin__
object
p2
Ntp3
Rp4
(dp5
S'root'
p6
g0
(c__main__
TrieNode
p7
g2
Ntp8
Rp9
(dp10
S'children'
p11
(dp12
S'a'
p13
g0
(g7
g2
Ntp14
Rp15
(dp16
g11
(dp17
S'i'
p18
g0
(g7
g2
Ntp19
Rp20
(dp21
g11
(dp22
sS'value'
p23
S'ai'
p24
sbsS'o'
p25
g0
(g7
g2
Ntp26
Rp27
(dp28
g11
(dp29
sg23
S'ao'
p30
sbsS'n'
p31
g0
(g7
g2
Ntp32
Rp33
(dp34
g11
(dp35
S'g'
p36
g0
(g7
g2
Ntp37
Rp38
(dp39
g11
(dp40
sg23
S'ang'
p41
sbssg23
S'an'
p42
sbssg23
g13
sbsS'c'
p43
g0
(g7
g2
Ntp44
Rp45
(dp46
g11
(dp47
g13
g0
(g7
g2
Ntp48
Rp49
(dp50
g11
(dp51
g18
g0
(g7
g2
Ntp52
Rp53
(dp54
g11
(dp55
sg23
S'cai'
p56
sbsg25
g0
(g7
g2
Ntp57
Rp58
(dp59
g11
(dp60
sg23
S'cao'
p61
sbsg31
g0
(g7
g2
Ntp62
Rp63
(dp64
g11
(dp65
g36
g0
(g7
g2
Ntp66
Rp67
(dp68
g11
(dp69
sg23
S'cang'
p70
sbssg23
S'can'
p71
sbssg23
S'ca'
p72
sbsS'e'
p73
g0
(g7
g2
Ntp74
Rp75
(dp76
g11
(dp77
g31
g0
(g7
g2
Ntp78
Rp79
(dp80
g11
(dp81
g36
g0
(g7
g2
Ntp82
Rp83
(dp84
g11
(dp85
sg23
S'ceng'
p86
sbssg23
S'cen'
p87
sbssg23
S'ce'
p88
sbsg18
g0
(g7
g2
Ntp89
Rp90
(dp91
g11
(dp92
sg23
S'ci'
p93
sbsS'h'
p94
g0
(g7
g2
Ntp95
Rp96
(dp97
g11
(dp98
g13
g0
(g7
g2
Ntp99
Rp100
(dp101
g11
(dp102
g18
g0
(g7
g2
Ntp103
Rp104
(dp105
g11
(dp106
sg23
S'chai'
p107
sbsg25
g0
(g7
g2
Ntp108
Rp109
(dp110
g11
(dp111
sg23
S'chao'
p112
sbsg31
g0
(g7
g2
Ntp113
Rp114
(dp115
g11
(dp116
g36
g0
(g7
g2
Ntp117
Rp118
(dp119
g11
(dp120
sg23
S'chang'
p121
sbssg23
S'chan'
p122
sbssg23
S'cha'
p123
sbsg18
g0
(g7
g2
Ntp124
Rp125
(dp126
g11
(dp127
sg23
S'chi'
p128
sbsg73
g0
(g7
g2
Ntp129
Rp130
(dp131
g11
(dp132
g31
g0
(g7
g2
Ntp133
Rp134
(dp135
g11
(dp136
g36
g0
(g7
g2
Ntp137
Rp138
(dp139
g11
(dp140
sg23
S'cheng'
p141
sbssg23
S'chen'
p142
sbssg23
S'che'
p143
sbsS'u'
p144
g0
(g7
g2
Ntp145
Rp146
(dp147
g11
(dp148
g13
g0
(g7
g2
Ntp149
Rp150
(dp151
g11
(dp152
g18
g0
(g7
g2
Ntp153
Rp154
(dp155
g11
(dp156
sg23
S'chuai'
p157
sbsg31
g0
(g7
g2
Ntp158
Rp159
(dp160
g11
(dp161
g36
g0
(g7
g2
Ntp162
Rp163
(dp164
g11
(dp165
sg23
S'chuang'
p166
sbssg23
S'chuan'
p167
sbssg23
Nsbsg18
g0
(g7
g2
Ntp168
Rp169
(dp170
g11
(dp171
sg23
S'chui'
p172
sbsg25
g0
(g7
g2
Ntp173
Rp174
(dp175
g11
(dp176
sg23
S'chuo'
p177
sbsg31
g0
(g7
g2
Ntp178
Rp179
(dp180
g11
(dp181
sg23
S'chun'
p182
sbssg23
S'chu'
p183
sbsg25
g0
(g7
g2
Ntp184
Rp185
(dp186
g11
(dp187
g144
g0
(g7
g2
Ntp188
Rp189
(dp190
g11
(dp191
sg23
S'chou'
p192
sbsg31
g0
(g7
g2
Ntp193
Rp194
(dp195
g11
(dp196
g36
g0
(g7
g2
Ntp197
Rp198
(dp199
g11
(dp200
sg23
S'chong'
p201
sbssg23
Nsbssg23
Nsbssg23
Nsbsg25
g0
(g7
g2
Ntp202
Rp203
(dp204
g11
(dp205
g144
g0
(g7
g2
Ntp206
Rp207
(dp208
g11
(dp209
sg23
S'cou'
p210
sbsg31
g0
(g7
g2
Ntp211
Rp212
(dp213
g11
(dp214
g36
g0
(g7
g2
Ntp215
Rp216
(dp217
g11
(dp218
sg23
S'cong'
p219
sbssg23
Nsbssg23
Nsbsg144
g0
(g7
g2
Ntp220
Rp221
(dp222
g11
(dp223
g13
g0
(g7
g2
Ntp224
Rp225
(dp226
g11
(dp227
g31
g0
(g7
g2
Ntp228
Rp229
(dp230
g11
(dp231
sg23
S'cuan'
p232
sbssg23
Nsbsg18
g0
(g7
g2
Ntp233
Rp234
(dp235
g11
(dp236
sg23
S'cui'
p237
sbsg25
g0
(g7
g2
Ntp238
Rp239
(dp240
g11
(dp241
sg23
S'cuo'
p242
sbsg31
g0
(g7
g2
Ntp243
Rp244
(dp245
g11
(dp246
sg23
S'cun'
p247
sbssg23
S'cu'
p248
sbssg23
NsbsS'b'
p249
g0
(g7
g2
Ntp250
Rp251
(dp252
g11
(dp253
g13
g0
(g7
g2
Ntp254
Rp255
(dp256
g11
(dp257
g18
g0
(g7
g2
Ntp258
Rp259
(dp260
g11
(dp261
sg23
S'bai'
p262
sbsg25
g0
(g7
g2
Ntp263
Rp264
(dp265
g11
(dp266
sg23
S'bao'
p267
sbsg31
g0
(g7
g2
Ntp268
Rp269
(dp270
g11
(dp271
g36
g0
(g7
g2
Ntp272
Rp273
(dp274
g11
(dp275
sg23
S'bang'
p276
sbssg23
S'ban'
p277
sbssg23
S'ba'
p278
sbsg18
g0
(g7
g2
Ntp279
Rp280
(dp281
g11
(dp282
g13
g0
(g7
g2
Ntp283
Rp284
(dp285
g11
(dp286
g25
g0
(g7
g2
Ntp287
Rp288
(dp289
g11
(dp290
sg23
S'biao'
p291
sbsg31
g0
(g7
g2
Ntp292
Rp293
(dp294
g11
(dp295
sg23
S'bian'
p296
sbssg23
Nsbsg73
g0
(g7
g2
Ntp297
Rp298
(dp299
g11
(dp300
sg23
S'bie'
p301
sbsg31
g0
(g7
g2
Ntp302
Rp303
(dp304
g11
(dp305
g36
g0
(g7
g2
Ntp306
Rp307
(dp308
g11
(dp309
sg23
S'bing'
p310
sbssg23
S'bin'
p311
sbssg23
S'bi'
p312
sbsg73
g0
(g7
g2
Ntp313
Rp314
(dp315
g11
(dp316
g18
g0
(g7
g2
Ntp317
Rp318
(dp319
g11
(dp320
sg23
S'bei'
p321
sbsg31
g0
(g7
g2
Ntp322
Rp323
(dp324
g11
(dp325
g36
g0
(g7
g2
Ntp326
Rp327
(dp328
g11
(dp329
sg23
S'beng'
p330
sbssg23
S'ben'
p331
sbssg23
Nsbsg144
g0
(g7
g2
Ntp332
Rp333
(dp334
g11
(dp335
sg23
S'bu'
p336
sbsg25
g0
(g7
g2
Ntp337
Rp338
(dp339
g11
(dp340
sg23
S'bo'
p341
sbssg23
Nsbsg73
g0
(g7
g2
Ntp342
Rp343
(dp344
g11
(dp345
g18
g0
(g7
g2
Ntp346
Rp347
(dp348
g11
(dp349
sg23
S'ei'
p350
sbsS'r'
p351
g0
(g7
g2
Ntp352
Rp353
(dp354
g11
(dp355
sg23
S'er'
p356
sbsg31
g0
(g7
g2
Ntp357
Rp358
(dp359
g11
(dp360
sg23
S'en'
p361
sbssg23
g73
sbsS'd'
p362
g0
(g7
g2
Ntp363
Rp364
(dp365
g11
(dp366
g13
g0
(g7
g2
Ntp367
Rp368
(dp369
g11
(dp370
g18
g0
(g7
g2
Ntp371
Rp372
(dp373
g11
(dp374
sg23
S'dai'
p375
sbsg25
g0
(g7
g2
Ntp376
Rp377
(dp378
g11
(dp379
sg23
S'dao'
p380
sbsg31
g0
(g7
g2
Ntp381
Rp382
(dp383
g11
(dp384
g36
g0
(g7
g2
Ntp385
Rp386
(dp387
g11
(dp388
sg23
S'dang'
p389
sbssg23
S'dan'
p390
sbssg23
S'da'
p391
sbsg18
g0
(g7
g2
Ntp392
Rp393
(dp394
g11
(dp395
g13
g0
(g7
g2
Ntp396
Rp397
(dp398
g11
(dp399
g25
g0
(g7
g2
Ntp400
Rp401
(dp402
g11
(dp403
sg23
S'diao'
p404
sbsg31
g0
(g7
g2
Ntp405
Rp406
(dp407
g11
(dp408
sg23
S'dian'
p409
sbssg23
S'dia'
p410
sbsg144
g0
(g7
g2
Ntp411
Rp412
(dp413
g11
(dp414
sg23
S'diu'
p415
sbsg73
g0
(g7
g2
Ntp416
Rp417
(dp418
g11
(dp419
sg23
S'die'
p420
sbsg31
g0
(g7
g2
Ntp421
Rp422
(dp423
g11
(dp424
g36
g0
(g7
g2
Ntp425
Rp426
(dp427
g11
(dp428
sg23
S'ding'
p429
sbssg23
Nsbssg23
S'di'
p430
sbsg73
g0
(g7
g2
Ntp431
Rp432
(dp433
g11
(dp434
g18
g0
(g7
g2
Ntp435
Rp436
(dp437
g11
(dp438
sg23
S'dei'
p439
sbsg31
g0
(g7
g2
Ntp440
Rp441
(dp442
g11
(dp443
g36
g0
(g7
g2
Ntp444
Rp445
(dp446
g11
(dp447
sg23
S'deng'
p448
sbssg23
Nsbssg23
S'de'
p449
sbsg144
g0
(g7
g2
Ntp450
Rp451
(dp452
g11
(dp453
g13
g0
(g7
g2
Ntp454
Rp455
(dp456
g11
(dp457
g31
g0
(g7
g2
Ntp458
Rp459
(dp460
g11
(dp461
sg23
S'duan'
p462
sbssg23
Nsbsg18
g0
(g7
g2
Ntp463
Rp464
(dp465
g11
(dp466
sg23
S'dui'
p467
sbsg25
g0
(g7
g2
Ntp468
Rp469
(dp470
g11
(dp471
sg23
S'duo'
p472
sbsg31
g0
(g7
g2
Ntp473
Rp474
(dp475
g11
(dp476
sg23
S'dun'
p477
sbssg23
S'du'
p478
sbsg25
g0
(g7
g2
Ntp479
Rp480
(dp481
g11
(dp482
g144
g0
(g7
g2
Ntp483
Rp484
(dp485
g11
(dp486
sg23
S'dou'
p487
sbsg31
g0
(g7
g2
Ntp488
Rp489
(dp490
g11
(dp491
g36
g0
(g7
g2
Ntp492
Rp493
(dp494
g11
(dp495
sg23
S'dong'
p496
sbssg23
Nsbssg23
Nsbssg23
Nsbsg36
g0
(g7
g2
Ntp497
Rp498
(dp499
g11
(dp500
g13
g0
(g7
g2
Ntp501
Rp502
(dp503
g11
(dp504
g18
g0
(g7
g2
Ntp505
Rp506
(dp507
g11
(dp508
sg23
S'gai'
p509
sbsg25
g0
(g7
g2
Ntp510
Rp511
(dp512
g11
(dp513
sg23
S'gao'
p514
sbsg31
g0
(g7
g2
Ntp515
Rp516
(dp517
g11
(dp518
g36
g0
(g7
g2
Ntp519
Rp520
(dp521
g11
(dp522
sg23
S'gang'
p523
sbssg23
S'gan'
p524
sbssg23
S'ga'
p525
sbsg144
g0
(g7
g2
Ntp526
Rp527
(dp528
g11
(dp529
g13
g0
(g7
g2
Ntp530
Rp531
(dp532
g11
(dp533
g18
g0
(g7
g2
Ntp534
Rp535
(dp536
g11
(dp537
sg23
S'guai'
p538
sbsg31
g0
(g7
g2
Ntp539
Rp540
(dp541
g11
(dp542
g36
g0
(g7
g2
Ntp543
Rp544
(dp545
g11
(dp546
sg23
S'guang'
p547
sbssg23
S'guan'
p548
sbssg23
S'gua'
p549
sbsg18
g0
(g7
g2
Ntp550
Rp551
(dp552
g11
(dp553
sg23
S'gui'
p554
sbsg25
g0
(g7
g2
Ntp555
Rp556
(dp557
g11
(dp558
sg23
S'guo'
p559
sbsg31
g0
(g7
g2
Ntp560
Rp561
(dp562
g11
(dp563
sg23
S'gun'
p564
sbssg23
S'gu'
p565
sbsg73
g0
(g7
g2
Ntp566
Rp567
(dp568
g11
(dp569
g18
g0
(g7
g2
Ntp570
Rp571
(dp572
g11
(dp573
sg23
S'gei'
p574
sbsg31
g0
(g7
g2
Ntp575
Rp576
(dp577
g11
(dp578
g36
g0
(g7
g2
Ntp579
Rp580
(dp581
g11
(dp582
sg23
S'geng'
p583
sbssg23
S'gen'
p584
sbssg23
S'ge'
p585
sbsg25
g0
(g7
g2
Ntp586
Rp587
(dp588
g11
(dp589
g144
g0
(g7
g2
Ntp590
Rp591
(dp592
g11
(dp593
sg23
S'gou'
p594
sbsg31
g0
(g7
g2
Ntp595
Rp596
(dp597
g11
(dp598
g36
g0
(g7
g2
Ntp599
Rp600
(dp601
g11
(dp602
sg23
S'gong'
p603
sbssg23
Nsbssg23
Nsbssg23
NsbsS'f'
p604
g0
(g7
g2
Ntp605
Rp606
(dp607
g11
(dp608
g13
g0
(g7
g2
Ntp609
Rp610
(dp611
g11
(dp612
g31
g0
(g7
g2
Ntp613
Rp614
(dp615
g11
(dp616
g36
g0
(g7
g2
Ntp617
Rp618
(dp619
g11
(dp620
sg23
S'fang'
p621
sbssg23
S'fan'
p622
sbssg23
S'fa'
p623
sbsg144
g0
(g7
g2
Ntp624
Rp625
(dp626
g11
(dp627
sg23
S'fu'
p628
sbsg73
g0
(g7
g2
Ntp629
Rp630
(dp631
g11
(dp632
g18
g0
(g7
g2
Ntp633
Rp634
(dp635
g11
(dp636
sg23
S'fei'
p637
sbsg31
g0
(g7
g2
Ntp638
Rp639
(dp640
g11
(dp641
g36
g0
(g7
g2
Ntp642
Rp643
(dp644
g11
(dp645
sg23
S'feng'
p646
sbssg23
S'fen'
p647
sbssg23
Nsbsg25
g0
(g7
g2
Ntp648
Rp649
(dp650
g11
(dp651
g144
g0
(g7
g2
Ntp652
Rp653
(dp654
g11
(dp655
sg23
S'fou'
p656
sbssg23
S'fo'
p657
sbssg23
Nsbsg94
g0
(g7
g2
Ntp658
Rp659
(dp660
g11
(dp661
g13
g0
(g7
g2
Ntp662
Rp663
(dp664
g11
(dp665
g18
g0
(g7
g2
Ntp666
Rp667
(dp668
g11
(dp669
sg23
S'hai'
p670
sbsg25
g0
(g7
g2
Ntp671
Rp672
(dp673
g11
(dp674
sg23
S'hao'
p675
sbsg31
g0
(g7
g2
Ntp676
Rp677
(dp678
g11
(dp679
g36
g0
(g7
g2
Ntp680
Rp681
(dp682
g11
(dp683
sg23
S'hang'
p684
sbssg23
S'han'
p685
sbssg23
S'ha'
p686
sbsg144
g0
(g7
g2
Ntp687
Rp688
(dp689
g11
(dp690
g13
g0
(g7
g2
Ntp691
Rp692
(dp693
g11
(dp694
g18
g0
(g7
g2
Ntp695
Rp696
(dp697
g11
(dp698
sg23
S'huai'
p699
sbsg31
g0
(g7
g2
Ntp700
Rp701
(dp702
g11
(dp703
g36
g0
(g7
g2
Ntp704
Rp705
(dp706
g11
(dp707
sg23
S'huang'
p708
sbssg23
S'huan'
p709
sbssg23
S'hua'
p710
sbsg18
g0
(g7
g2
Ntp711
Rp712
(dp713
g11
(dp714
sg23
S'hui'
p715
sbsg25
g0
(g7
g2
Ntp716
Rp717
(dp718
g11
(dp719
sg23
S'huo'
p720
sbsg31
g0
(g7
g2
Ntp721
Rp722
(dp723
g11
(dp724
sg23
S'hun'
p725
sbssg23
S'hu'
p726
sbsg73
g0
(g7
g2
Ntp727
Rp728
(dp729
g11
(dp730
g18
g0
(g7
g2
Ntp731
Rp732
(dp733
g11
(dp734
sg23
S'hei'
p735
sbsg31
g0
(g7
g2
Ntp736
Rp737
(dp738
g11
(dp739
g36
g0
(g7
g2
Ntp740
Rp741
(dp742
g11
(dp743
sg23
S'heng'
p744
sbssg23
S'hen'
p745
sbssg23
S'he'
p746
sbsg25
g0
(g7
g2
Ntp747
Rp748
(dp749
g11
(dp750
g144
g0
(g7
g2
Ntp751
Rp752
(dp753
g11
(dp754
sg23
S'hou'
p755
sbsg31
g0
(g7
g2
Ntp756
Rp757
(dp758
g11
(dp759
g36
g0
(g7
g2
Ntp760
Rp761
(dp762
g11
(dp763
sg23
S'hong'
p764
sbssg23
Nsbssg23
Nsbssg23
NsbsS'k'
p765
g0
(g7
g2
Ntp766
Rp767
(dp768
g11
(dp769
g13
g0
(g7
g2
Ntp770
Rp771
(dp772
g11
(dp773
g18
g0
(g7
g2
Ntp774
Rp775
(dp776
g11
(dp777
sg23
S'kai'
p778
sbsg25
g0
(g7
g2
Ntp779
Rp780
(dp781
g11
(dp782
sg23
S'kao'
p783
sbsg31
g0
(g7
g2
Ntp784
Rp785
(dp786
g11
(dp787
g36
g0
(g7
g2
Ntp788
Rp789
(dp790
g11
(dp791
sg23
S'kang'
p792
sbssg23
S'kan'
p793
sbssg23
S'ka'
p794
sbsg144
g0
(g7
g2
Ntp795
Rp796
(dp797
g11
(dp798
g13
g0
(g7
g2
Ntp799
Rp800
(dp801
g11
(dp802
g18
g0
(g7
g2
Ntp803
Rp804
(dp805
g11
(dp806
sg23
S'kuai'
p807
sbsg31
g0
(g7
g2
Ntp808
Rp809
(dp810
g11
(dp811
g36
g0
(g7
g2
Ntp812
Rp813
(dp814
g11
(dp815
sg23
S'kuang'
p816
sbssg23
S'kuan'
p817
sbssg23
S'kua'
p818
sbsg18
g0
(g7
g2
Ntp819
Rp820
(dp821
g11
(dp822
sg23
S'kui'
p823
sbsg25
g0
(g7
g2
Ntp824
Rp825
(dp826
g11
(dp827
sg23
S'kuo'
p828
sbsg31
g0
(g7
g2
Ntp829
Rp830
(dp831
g11
(dp832
sg23
S'kun'
p833
sbssg23
S'ku'
p834
sbsg73
g0
(g7
g2
Ntp835
Rp836
(dp837
g11
(dp838
g31
g0
(g7
g2
Ntp839
Rp840
(dp841
g11
(dp842
g36
g0
(g7
g2
Ntp843
Rp844
(dp845
g11
(dp846
sg23
S'keng'
p847
sbssg23
S'ken'
p848
sbssg23
S'ke'
p849
sbsg25
g0
(g7
g2
Ntp850
Rp851
(dp852
g11
(dp853
g144
g0
(g7
g2
Ntp854
Rp855
(dp856
g11
(dp857
sg23
S'kou'
p858
sbsg31
g0
(g7
g2
Ntp859
Rp860
(dp861
g11
(dp862
g36
g0
(g7
g2
Ntp863
Rp864
(dp865
g11
(dp866
sg23
S'kong'
p867
sbssg23
Nsbssg23
Nsbssg23
NsbsS'j'
p868
g0
(g7
g2
Ntp869
Rp870
(dp871
g11
(dp872
g18
g0
(g7
g2
Ntp873
Rp874
(dp875
g11
(dp876
g13
g0
(g7
g2
Ntp877
Rp878
(dp879
g11
(dp880
g25
g0
(g7
g2
Ntp881
Rp882
(dp883
g11
(dp884
sg23
S'jiao'
p885
sbsg31
g0
(g7
g2
Ntp886
Rp887
(dp888
g11
(dp889
g36
g0
(g7
g2
Ntp890
Rp891
(dp892
g11
(dp893
sg23
S'jiang'
p894
sbssg23
S'jian'
p895
sbssg23
S'jia'
p896
sbsg144
g0
(g7
g2
Ntp897
Rp898
(dp899
g11
(dp900
sg23
S'jiu'
p901
sbsg73
g0
(g7
g2
Ntp902
Rp903
(dp904
g11
(dp905
sg23
S'jie'
p906
sbsg25
g0
(g7
g2
Ntp907
Rp908
(dp909
g11
(dp910
g31
g0
(g7
g2
Ntp911
Rp912
(dp913
g11
(dp914
g36
g0
(g7
g2
Ntp915
Rp916
(dp917
g11
(dp918
sg23
S'jiong'
p919
sbssg23
Nsbssg23
Nsbsg31
g0
(g7
g2
Ntp920
Rp921
(dp922
g11
(dp923
g36
g0
(g7
g2
Ntp924
Rp925
(dp926
g11
(dp927
sg23
S'jing'
p928
sbssg23
S'jin'
p929
sbssg23
S'ji'
p930
sbsg144
g0
(g7
g2
Ntp931
Rp932
(dp933
g11
(dp934
g13
g0
(g7
g2
Ntp935
Rp936
(dp937
g11
(dp938
g31
g0
(g7
g2
Ntp939
Rp940
(dp941
g11
(dp942
sg23
S'juan'
p943
sbssg23
Nsbsg73
g0
(g7
g2
Ntp944
Rp945
(dp946
g11
(dp947
sg23
S'jue'
p948
sbsg31
g0
(g7
g2
Ntp949
Rp950
(dp951
g11
(dp952
sg23
S'jun'
p953
sbssg23
S'ju'
p954
sbssg23
NsbsS'm'
p955
g0
(g7
g2
Ntp956
Rp957
(dp958
g11
(dp959
g13
g0
(g7
g2
Ntp960
Rp961
(dp962
g11
(dp963
g18
g0
(g7
g2
Ntp964
Rp965
(dp966
g11
(dp967
sg23
S'mai'
p968
sbsg25
g0
(g7
g2
Ntp969
Rp970
(dp971
g11
(dp972
sg23
S'mao'
p973
sbsg31
g0
(g7
g2
Ntp974
Rp975
(dp976
g11
(dp977
g36
g0
(g7
g2
Ntp978
Rp979
(dp980
g11
(dp981
sg23
S'mang'
p982
sbssg23
S'man'
p983
sbssg23
S'ma'
p984
sbsg18
g0
(g7
g2
Ntp985
Rp986
(dp987
g11
(dp988
g13
g0
(g7
g2
Ntp989
Rp990
(dp991
g11
(dp992
g25
g0
(g7
g2
Ntp993
Rp994
(dp995
g11
(dp996
sg23
S'miao'
p997
sbsg31
g0
(g7
g2
Ntp998
Rp999
(dp1000
g11
(dp1001
sg23
S'mian'
p1002
sbssg23
Nsbsg144
g0
(g7
g2
Ntp1003
Rp1004
(dp1005
g11
(dp1006
sg23
S'miu'
p1007
sbsg73
g0
(g7
g2
Ntp1008
Rp1009
(dp1010
g11
(dp1011
sg23
S'mie'
p1012
sbsg31
g0
(g7
g2
Ntp1013
Rp1014
(dp1015
g11
(dp1016
g36
g0
(g7
g2
Ntp1017
Rp1018
(dp1019
g11
(dp1020
sg23
S'ming'
p1021
sbssg23
S'min'
p1022
sbssg23
S'mi'
p1023
sbsg73
g0
(g7
g2
Ntp1024
Rp1025
(dp1026
g11
(dp1027
g18
g0
(g7
g2
Ntp1028
Rp1029
(dp1030
g11
(dp1031
sg23
S'mei'
p1032
sbsg31
g0
(g7
g2
Ntp1033
Rp1034
(dp1035
g11
(dp1036
g36
g0
(g7
g2
Ntp1037
Rp1038
(dp1039
g11
(dp1040
sg23
S'meng'
p1041
sbssg23
S'men'
p1042
sbssg23
S'me'
p1043
sbsg144
g0
(g7
g2
Ntp1044
Rp1045
(dp1046
g11
(dp1047
sg23
S'mu'
p1048
sbsg25
g0
(g7
g2
Ntp1049
Rp1050
(dp1051
g11
(dp1052
g144
g0
(g7
g2
Ntp1053
Rp1054
(dp1055
g11
(dp1056
sg23
S'mou'
p1057
sbssg23
S'mo'
p1058
sbssg23
g955
sbsS'l'
p1059
g0
(g7
g2
Ntp1060
Rp1061
(dp1062
g11
(dp1063
g13
g0
(g7
g2
Ntp1064
Rp1065
(dp1066
g11
(dp1067
g18
g0
(g7
g2
Ntp1068
Rp1069
(dp1070
g11
(dp1071
sg23
S'lai'
p1072
sbsg25
g0
(g7
g2
Ntp1073
Rp1074
(dp1075
g11
(dp1076
sg23
S'lao'
p1077
sbsg31
g0
(g7
g2
Ntp1078
Rp1079
(dp1080
g11
(dp1081
g36
g0
(g7
g2
Ntp1082
Rp1083
(dp1084
g11
(dp1085
sg23
S'lang'
p1086
sbssg23
S'lan'
p1087
sbssg23
S'la'
p1088
sbsg73
g0
(g7
g2
Ntp1089
Rp1090
(dp1091
g11
(dp1092
g18
g0
(g7
g2
Ntp1093
Rp1094
(dp1095
g11
(dp1096
sg23
S'lei'
p1097
sbsg31
g0
(g7
g2
Ntp1098
Rp1099
(dp1100
g11
(dp1101
g36
g0
(g7
g2
Ntp1102
Rp1103
(dp1104
g11
(dp1105
sg23
S'leng'
p1106
sbssg23
Nsbssg23
S'le'
p1107
sbsg18
g0
(g7
g2
Ntp1108
Rp1109
(dp1110
g11
(dp1111
g13
g0
(g7
g2
Ntp1112
Rp1113
(dp1114
g11
(dp1115
g25
g0
(g7
g2
Ntp1116
Rp1117
(dp1118
g11
(dp1119
sg23
S'liao'
p1120
sbsg31
g0
(g7
g2
Ntp1121
Rp1122
(dp1123
g11
(dp1124
g36
g0
(g7
g2
Ntp1125
Rp1126
(dp1127
g11
(dp1128
sg23
S'liang'
p1129
sbssg23
S'lian'
p1130
sbssg23
S'lia'
p1131
sbsg144
g0
(g7
g2
Ntp1132
Rp1133
(dp1134
g11
(dp1135
sg23
S'liu'
p1136
sbsg73
g0
(g7
g2
Ntp1137
Rp1138
(dp1139
g11
(dp1140
sg23
S'lie'
p1141
sbsg31
g0
(g7
g2
Ntp1142
Rp1143
(dp1144
g11
(dp1145
g36
g0
(g7
g2
Ntp1146
Rp1147
(dp1148
g11
(dp1149
sg23
S'ling'
p1150
sbssg23
S'lin'
p1151
sbssg23
S'li'
p1152
sbsg25
g0
(g7
g2
Ntp1153
Rp1154
(dp1155
g11
(dp1156
g144
g0
(g7
g2
Ntp1157
Rp1158
(dp1159
g11
(dp1160
sg23
S'lou'
p1161
sbsg31
g0
(g7
g2
Ntp1162
Rp1163
(dp1164
g11
(dp1165
g36
g0
(g7
g2
Ntp1166
Rp1167
(dp1168
g11
(dp1169
sg23
S'long'
p1170
sbssg23
Nsbssg23
S'lo'
p1171
sbsg144
g0
(g7
g2
Ntp1172
Rp1173
(dp1174
g11
(dp1175
g13
g0
(g7
g2
Ntp1176
Rp1177
(dp1178
g11
(dp1179
g31
g0
(g7
g2
Ntp1180
Rp1181
(dp1182
g11
(dp1183
sg23
S'luan'
p1184
sbssg23
Nsbsg25
g0
(g7
g2
Ntp1185
Rp1186
(dp1187
g11
(dp1188
sg23
S'luo'
p1189
sbsg31
g0
(g7
g2
Ntp1190
Rp1191
(dp1192
g11
(dp1193
sg23
S'lun'
p1194
sbssg23
S'lu'
p1195
sbsS'v'
p1196
g0
(g7
g2
Ntp1197
Rp1198
(dp1199
g11
(dp1200
g73
g0
(g7
g2
Ntp1201
Rp1202
(dp1203
g11
(dp1204
sg23
S'lve'
p1205
sbssg23
S'lv'
p1206
sbssg23
Nsbsg25
g0
(g7
g2
Ntp1207
Rp1208
(dp1209
g11
(dp1210
g144
g0
(g7
g2
Ntp1211
Rp1212
(dp1213
g11
(dp1214
sg23
S'ou'
p1215
sbssg23
g25
sbsg31
g0
(g7
g2
Ntp1216
Rp1217
(dp1218
g11
(dp1219
g13
g0
(g7
g2
Ntp1220
Rp1221
(dp1222
g11
(dp1223
g18
g0
(g7
g2
Ntp1224
Rp1225
(dp1226
g11
(dp1227
sg23
S'nai'
p1228
sbsg25
g0
(g7
g2
Ntp1229
Rp1230
(dp1231
g11
(dp1232
sg23
S'nao'
p1233
sbsg31
g0
(g7
g2
Ntp1234
Rp1235
(dp1236
g11
(dp1237
g36
g0
(g7
g2
Ntp1238
Rp1239
(dp1240
g11
(dp1241
sg23
S'nang'
p1242
sbssg23
S'nan'
p1243
sbssg23
S'na'
p1244
sbsg73
g0
(g7
g2
Ntp1245
Rp1246
(dp1247
g11
(dp1248
g18
g0
(g7
g2
Ntp1249
Rp1250
(dp1251
g11
(dp1252
sg23
S'nei'
p1253
sbsg31
g0
(g7
g2
Ntp1254
Rp1255
(dp1256
g11
(dp1257
g36
g0
(g7
g2
Ntp1258
Rp1259
(dp1260
g11
(dp1261
sg23
S'neng'
p1262
sbssg23
S'nen'
p1263
sbssg23
S'ne'
p1264
sbsg36
g0
(g7
g2
Ntp1265
Rp1266
(dp1267
g11
(dp1268
sg23
S'ng'
p1269
sbsg18
g0
(g7
g2
Ntp1270
Rp1271
(dp1272
g11
(dp1273
g13
g0
(g7
g2
Ntp1274
Rp1275
(dp1276
g11
(dp1277
g25
g0
(g7
g2
Ntp1278
Rp1279
(dp1280
g11
(dp1281
sg23
S'niao'
p1282
sbsg31
g0
(g7
g2
Ntp1283
Rp1284
(dp1285
g11
(dp1286
g36
g0
(g7
g2
Ntp1287
Rp1288
(dp1289
g11
(dp1290
sg23
S'niang'
p1291
sbssg23
S'nian'
p1292
sbssg23
Nsbsg144
g0
(g7
g2
Ntp1293
Rp1294
(dp1295
g11
(dp1296
sg23
S'niu'
p1297
sbsg73
g0
(g7
g2
Ntp1298
Rp1299
(dp1300
g11
(dp1301
sg23
S'nie'
p1302
sbsg31
g0
(g7
g2
Ntp1303
Rp1304
(dp1305
g11
(dp1306
g36
g0
(g7
g2
Ntp1307
Rp1308
(dp1309
g11
(dp1310
sg23
S'ning'
p1311
sbssg23
S'nin'
p1312
sbssg23
S'ni'
p1313
sbsg25
g0
(g7
g2
Ntp1314
Rp1315
(dp1316
g11
(dp1317
g144
g0
(g7
g2
Ntp1318
Rp1319
(dp1320
g11
(dp1321
sg23
S'nou'
p1322
sbsg31
g0
(g7
g2
Ntp1323
Rp1324
(dp1325
g11
(dp1326
g36
g0
(g7
g2
Ntp1327
Rp1328
(dp1329
g11
(dp1330
sg23
S'nong'
p1331
sbssg23
Nsbssg23
Nsbsg144
g0
(g7
g2
Ntp1332
Rp1333
(dp1334
g11
(dp1335
g13
g0
(g7
g2
Ntp1336
Rp1337
(dp1338
g11
(dp1339
g31
g0
(g7
g2
Ntp1340
Rp1341
(dp1342
g11
(dp1343
sg23
S'nuan'
p1344
sbssg23
Nsbsg25
g0
(g7
g2
Ntp1345
Rp1346
(dp1347
g11
(dp1348
sg23
S'nuo'
p1349
sbssg23
S'nu'
p1350
sbsg1196
g0
(g7
g2
Ntp1351
Rp1352
(dp1353
g11
(dp1354
g73
g0
(g7
g2
Ntp1355
Rp1356
(dp1357
g11
(dp1358
sg23
S'nve'
p1359
sbssg23
S'nv'
p1360
sbssg23
NsbsS'q'
p1361
g0
(g7
g2
Ntp1362
Rp1363
(dp1364
g11
(dp1365
g18
g0
(g7
g2
Ntp1366
Rp1367
(dp1368
g11
(dp1369
g13
g0
(g7
g2
Ntp1370
Rp1371
(dp1372
g11
(dp1373
g25
g0
(g7
g2
Ntp1374
Rp1375
(dp1376
g11
(dp1377
sg23
S'qiao'
p1378
sbsg31
g0
(g7
g2
Ntp1379
Rp1380
(dp1381
g11
(dp1382
g36
g0
(g7
g2
Ntp1383
Rp1384
(dp1385
g11
(dp1386
sg23
S'qiang'
p1387
sbssg23
S'qian'
p1388
sbssg23
S'qia'
p1389
sbsg144
g0
(g7
g2
Ntp1390
Rp1391
(dp1392
g11
(dp1393
sg23
S'qiu'
p1394
sbsg73
g0
(g7
g2
Ntp1395
Rp1396
(dp1397
g11
(dp1398
sg23
S'qie'
p1399
sbsg25
g0
(g7
g2
Ntp1400
Rp1401
(dp1402
g11
(dp1403
g31
g0
(g7
g2
Ntp1404
Rp1405
(dp1406
g11
(dp1407
g36
g0
(g7
g2
Ntp1408
Rp1409
(dp1410
g11
(dp1411
sg23
S'qiong'
p1412
sbssg23
Nsbssg23
Nsbsg31
g0
(g7
g2
Ntp1413
Rp1414
(dp1415
g11
(dp1416
g36
g0
(g7
g2
Ntp1417
Rp1418
(dp1419
g11
(dp1420
sg23
S'qing'
p1421
sbssg23
S'qin'
p1422
sbssg23
S'qi'
p1423
sbsg144
g0
(g7
g2
Ntp1424
Rp1425
(dp1426
g11
(dp1427
g13
g0
(g7
g2
Ntp1428
Rp1429
(dp1430
g11
(dp1431
g31
g0
(g7
g2
Ntp1432
Rp1433
(dp1434
g11
(dp1435
sg23
S'quan'
p1436
sbssg23
Nsbsg18
g0
(g7
g2
Ntp1437
Rp1438
(dp1439
g11
(dp1440
sg23
S'qui'
p1441
sbsg73
g0
(g7
g2
Ntp1442
Rp1443
(dp1444
g11
(dp1445
sg23
S'que'
p1446
sbsg31
g0
(g7
g2
Ntp1447
Rp1448
(dp1449
g11
(dp1450
sg23
S'qun'
p1451
sbssg23
S'qu'
p1452
sbssg23
NsbsS'p'
p1453
g0
(g7
g2
Ntp1454
Rp1455
(dp1456
g11
(dp1457
g13
g0
(g7
g2
Ntp1458
Rp1459
(dp1460
g11
(dp1461
g18
g0
(g7
g2
Ntp1462
Rp1463
(dp1464
g11
(dp1465
sg23
S'pai'
p1466
sbsg25
g0
(g7
g2
Ntp1467
Rp1468
(dp1469
g11
(dp1470
sg23
S'pao'
p1471
sbsg31
g0
(g7
g2
Ntp1472
Rp1473
(dp1474
g11
(dp1475
g36
g0
(g7
g2
Ntp1476
Rp1477
(dp1478
g11
(dp1479
sg23
S'pang'
p1480
sbssg23
S'pan'
p1481
sbssg23
S'pa'
p1482
sbsg18
g0
(g7
g2
Ntp1483
Rp1484
(dp1485
g11
(dp1486
g13
g0
(g7
g2
Ntp1487
Rp1488
(dp1489
g11
(dp1490
g25
g0
(g7
g2
Ntp1491
Rp1492
(dp1493
g11
(dp1494
sg23
S'piao'
p1495
sbsg31
g0
(g7
g2
Ntp1496
Rp1497
(dp1498
g11
(dp1499
sg23
S'pian'
p1500
sbssg23
Nsbsg73
g0
(g7
g2
Ntp1501
Rp1502
(dp1503
g11
(dp1504
sg23
S'pie'
p1505
sbsg31
g0
(g7
g2
Ntp1506
Rp1507
(dp1508
g11
(dp1509
g36
g0
(g7
g2
Ntp1510
Rp1511
(dp1512
g11
(dp1513
sg23
S'ping'
p1514
sbssg23
S'pin'
p1515
sbssg23
S'pi'
p1516
sbsg73
g0
(g7
g2
Ntp1517
Rp1518
(dp1519
g11
(dp1520
g18
g0
(g7
g2
Ntp1521
Rp1522
(dp1523
g11
(dp1524
sg23
S'pei'
p1525
sbsg31
g0
(g7
g2
Ntp1526
Rp1527
(dp1528
g11
(dp1529
g36
g0
(g7
g2
Ntp1530
Rp1531
(dp1532
g11
(dp1533
sg23
S'peng'
p1534
sbssg23
S'pen'
p1535
sbssg23
Nsbsg144
g0
(g7
g2
Ntp1536
Rp1537
(dp1538
g11
(dp1539
sg23
S'pu'
p1540
sbsg25
g0
(g7
g2
Ntp1541
Rp1542
(dp1543
g11
(dp1544
g144
g0
(g7
g2
Ntp1545
Rp1546
(dp1547
g11
(dp1548
sg23
S'pou'
p1549
sbssg23
S'po'
p1550
sbssg23
NsbsS's'
p1551
g0
(g7
g2
Ntp1552
Rp1553
(dp1554
g11
(dp1555
g13
g0
(g7
g2
Ntp1556
Rp1557
(dp1558
g11
(dp1559
g18
g0
(g7
g2
Ntp1560
Rp1561
(dp1562
g11
(dp1563
sg23
S'sai'
p1564
sbsg25
g0
(g7
g2
Ntp1565
Rp1566
(dp1567
g11
(dp1568
sg23
S'sao'
p1569
sbsg31
g0
(g7
g2
Ntp1570
Rp1571
(dp1572
g11
(dp1573
g36
g0
(g7
g2
Ntp1574
Rp1575
(dp1576
g11
(dp1577
sg23
S'sang'
p1578
sbssg23
S'san'
p1579
sbssg23
S'sa'
p1580
sbsg73
g0
(g7
g2
Ntp1581
Rp1582
(dp1583
g11
(dp1584
g31
g0
(g7
g2
Ntp1585
Rp1586
(dp1587
g11
(dp1588
g36
g0
(g7
g2
Ntp1589
Rp1590
(dp1591
g11
(dp1592
sg23
S'seng'
p1593
sbssg23
S'sen'
p1594
sbssg23
S'se'
p1595
sbsg18
g0
(g7
g2
Ntp1596
Rp1597
(dp1598
g11
(dp1599
sg23
S'si'
p1600
sbsg94
g0
(g7
g2
Ntp1601
Rp1602
(dp1603
g11
(dp1604
g13
g0
(g7
g2
Ntp1605
Rp1606
(dp1607
g11
(dp1608
g18
g0
(g7
g2
Ntp1609
Rp1610
(dp1611
g11
(dp1612
sg23
S'shai'
p1613
sbsg25
g0
(g7
g2
Ntp1614
Rp1615
(dp1616
g11
(dp1617
sg23
S'shao'
p1618
sbsg31
g0
(g7
g2
Ntp1619
Rp1620
(dp1621
g11
(dp1622
g36
g0
(g7
g2
Ntp1623
Rp1624
(dp1625
g11
(dp1626
sg23
S'shang'
p1627
sbssg23
S'shan'
p1628
sbssg23
S'sha'
p1629
sbsg18
g0
(g7
g2
Ntp1630
Rp1631
(dp1632
g11
(dp1633
sg23
S'shi'
p1634
sbsg73
g0
(g7
g2
Ntp1635
Rp1636
(dp1637
g11
(dp1638
g18
g0
(g7
g2
Ntp1639
Rp1640
(dp1641
g11
(dp1642
sg23
S'shei'
p1643
sbsg31
g0
(g7
g2
Ntp1644
Rp1645
(dp1646
g11
(dp1647
g36
g0
(g7
g2
Ntp1648
Rp1649
(dp1650
g11
(dp1651
sg23
S'sheng'
p1652
sbssg23
S'shen'
p1653
sbssg23
S'she'
p1654
sbsg144
g0
(g7
g2
Ntp1655
Rp1656
(dp1657
g11
(dp1658
g13
g0
(g7
g2
Ntp1659
Rp1660
(dp1661
g11
(dp1662
g18
g0
(g7
g2
Ntp1663
Rp1664
(dp1665
g11
(dp1666
sg23
S'shuai'
p1667
sbsg31
g0
(g7
g2
Ntp1668
Rp1669
(dp1670
g11
(dp1671
g36
g0
(g7
g2
Ntp1672
Rp1673
(dp1674
g11
(dp1675
sg23
S'shuang'
p1676
sbssg23
S'shuan'
p1677
sbssg23
S'shua'
p1678
sbsg18
g0
(g7
g2
Ntp1679
Rp1680
(dp1681
g11
(dp1682
sg23
S'shui'
p1683
sbsg25
g0
(g7
g2
Ntp1684
Rp1685
(dp1686
g11
(dp1687
sg23
S'shuo'
p1688
sbsg31
g0
(g7
g2
Ntp1689
Rp1690
(dp1691
g11
(dp1692
sg23
S'shun'
p1693
sbssg23
S'shu'
p1694
sbsg25
g0
(g7
g2
Ntp1695
Rp1696
(dp1697
g11
(dp1698
g144
g0
(g7
g2
Ntp1699
Rp1700
(dp1701
g11
(dp1702
sg23
S'shou'
p1703
sbssg23
Nsbssg23
Nsbsg25
g0
(g7
g2
Ntp1704
Rp1705
(dp1706
g11
(dp1707
g144
g0
(g7
g2
Ntp1708
Rp1709
(dp1710
g11
(dp1711
sg23
S'sou'
p1712
sbsg31
g0
(g7
g2
Ntp1713
Rp1714
(dp1715
g11
(dp1716
g36
g0
(g7
g2
Ntp1717
Rp1718
(dp1719
g11
(dp1720
sg23
S'song'
p1721
sbssg23
Nsbssg23
Nsbsg144
g0
(g7
g2
Ntp1722
Rp1723
(dp1724
g11
(dp1725
g13
g0
(g7
g2
Ntp1726
Rp1727
(dp1728
g11
(dp1729
g31
g0
(g7
g2
Ntp1730
Rp1731
(dp1732
g11
(dp1733
sg23
S'suan'
p1734
sbssg23
Nsbsg18
g0
(g7
g2
Ntp1735
Rp1736
(dp1737
g11
(dp1738
sg23
S'sui'
p1739
sbsg25
g0
(g7
g2
Ntp1740
Rp1741
(dp1742
g11
(dp1743
sg23
S'suo'
p1744
sbsg31
g0
(g7
g2
Ntp1745
Rp1746
(dp1747
g11
(dp1748
sg23
S'sun'
p1749
sbssg23
S'su'
p1750
sbssg23
Nsbsg351
g0
(g7
g2
Ntp1751
Rp1752
(dp1753
g11
(dp1754
g13
g0
(g7
g2
Ntp1755
Rp1756
(dp1757
g11
(dp1758
g25
g0
(g7
g2
Ntp1759
Rp1760
(dp1761
g11
(dp1762
sg23
S'rao'
p1763
sbsg31
g0
(g7
g2
Ntp1764
Rp1765
(dp1766
g11
(dp1767
g36
g0
(g7
g2
Ntp1768
Rp1769
(dp1770
g11
(dp1771
sg23
S'rang'
p1772
sbssg23
S'ran'
p1773
sbssg23
Nsbsg18
g0
(g7
g2
Ntp1774
Rp1775
(dp1776
g11
(dp1777
sg23
S'ri'
p1778
sbsg73
g0
(g7
g2
Ntp1779
Rp1780
(dp1781
g11
(dp1782
g31
g0
(g7
g2
Ntp1783
Rp1784
(dp1785
g11
(dp1786
g36
g0
(g7
g2
Ntp1787
Rp1788
(dp1789
g11
(dp1790
sg23
S'reng'
p1791
sbssg23
S'ren'
p1792
sbssg23
S're'
p1793
sbsg144
g0
(g7
g2
Ntp1794
Rp1795
(dp1796
g11
(dp1797
g13
g0
(g7
g2
Ntp1798
Rp1799
(dp1800
g11
(dp1801
g31
g0
(g7
g2
Ntp1802
Rp1803
(dp1804
g11
(dp1805
sg23
S'ruan'
p1806
sbssg23
Nsbsg18
g0
(g7
g2
Ntp1807
Rp1808
(dp1809
g11
(dp1810
sg23
S'rui'
p1811
sbsg25
g0
(g7
g2
Ntp1812
Rp1813
(dp1814
g11
(dp1815
sg23
S'ruo'
p1816
sbsg31
g0
(g7
g2
Ntp1817
Rp1818
(dp1819
g11
(dp1820
sg23
S'run'
p1821
sbssg23
S'ru'
p1822
sbsg25
g0
(g7
g2
Ntp1823
Rp1824
(dp1825
g11
(dp1826
g144
g0
(g7
g2
Ntp1827
Rp1828
(dp1829
g11
(dp1830
sg23
S'rou'
p1831
sbsg31
g0
(g7
g2
Ntp1832
Rp1833
(dp1834
g11
(dp1835
g36
g0
(g7
g2
Ntp1836
Rp1837
(dp1838
g11
(dp1839
sg23
S'rong'
p1840
sbssg23
Nsbssg23
Nsbssg23
NsbsS't'
p1841
g0
(g7
g2
Ntp1842
Rp1843
(dp1844
g11
(dp1845
g13
g0
(g7
g2
Ntp1846
Rp1847
(dp1848
g11
(dp1849
g18
g0
(g7
g2
Ntp1850
Rp1851
(dp1852
g11
(dp1853
sg23
S'tai'
p1854
sbsg25
g0
(g7
g2
Ntp1855
Rp1856
(dp1857
g11
(dp1858
sg23
S'tao'
p1859
sbsg31
g0
(g7
g2
Ntp1860
Rp1861
(dp1862
g11
(dp1863
g36
g0
(g7
g2
Ntp1864
Rp1865
(dp1866
g11
(dp1867
sg23
S'tang'
p1868
sbssg23
S'tan'
p1869
sbssg23
S'ta'
p1870
sbsg18
g0
(g7
g2
Ntp1871
Rp1872
(dp1873
g11
(dp1874
g13
g0
(g7
g2
Ntp1875
Rp1876
(dp1877
g11
(dp1878
g25
g0
(g7
g2
Ntp1879
Rp1880
(dp1881
g11
(dp1882
sg23
S'tiao'
p1883
sbsg31
g0
(g7
g2
Ntp1884
Rp1885
(dp1886
g11
(dp1887
sg23
S'tian'
p1888
sbssg23
Nsbsg73
g0
(g7
g2
Ntp1889
Rp1890
(dp1891
g11
(dp1892
sg23
S'tie'
p1893
sbsg31
g0
(g7
g2
Ntp1894
Rp1895
(dp1896
g11
(dp1897
g36
g0
(g7
g2
Ntp1898
Rp1899
(dp1900
g11
(dp1901
sg23
S'ting'
p1902
sbssg23
Nsbssg23
S'ti'
p1903
sbsg73
g0
(g7
g2
Ntp1904
Rp1905
(dp1906
g11
(dp1907
g31
g0
(g7
g2
Ntp1908
Rp1909
(dp1910
g11
(dp1911
g36
g0
(g7
g2
Ntp1912
Rp1913
(dp1914
g11
(dp1915
sg23
S'teng'
p1916
sbssg23
Nsbssg23
S'te'
p1917
sbsg144
g0
(g7
g2
Ntp1918
Rp1919
(dp1920
g11
(dp1921
g13
g0
(g7
g2
Ntp1922
Rp1923
(dp1924
g11
(dp1925
g31
g0
(g7
g2
Ntp1926
Rp1927
(dp1928
g11
(dp1929
sg23
S'tuan'
p1930
sbssg23
Nsbsg18
g0
(g7
g2
Ntp1931
Rp1932
(dp1933
g11
(dp1934
sg23
S'tui'
p1935
sbsg25
g0
(g7
g2
Ntp1936
Rp1937
(dp1938
g11
(dp1939
sg23
S'tuo'
p1940
sbsg31
g0
(g7
g2
Ntp1941
Rp1942
(dp1943
g11
(dp1944
sg23
S'tun'
p1945
sbssg23
S'tu'
p1946
sbsg25
g0
(g7
g2
Ntp1947
Rp1948
(dp1949
g11
(dp1950
g144
g0
(g7
g2
Ntp1951
Rp1952
(dp1953
g11
(dp1954
sg23
S'tou'
p1955
sbsg31
g0
(g7
g2
Ntp1956
Rp1957
(dp1958
g11
(dp1959
g36
g0
(g7
g2
Ntp1960
Rp1961
(dp1962
g11
(dp1963
sg23
S'tong'
p1964
sbssg23
Nsbssg23
Nsbssg23
NsbsS'w'
p1965
g0
(g7
g2
Ntp1966
Rp1967
(dp1968
g11
(dp1969
g13
g0
(g7
g2
Ntp1970
Rp1971
(dp1972
g11
(dp1973
g18
g0
(g7
g2
Ntp1974
Rp1975
(dp1976
g11
(dp1977
sg23
S'wai'
p1978
sbsg31
g0
(g7
g2
Ntp1979
Rp1980
(dp1981
g11
(dp1982
g36
g0
(g7
g2
Ntp1983
Rp1984
(dp1985
g11
(dp1986
sg23
S'wang'
p1987
sbssg23
S'wan'
p1988
sbssg23
S'wa'
p1989
sbsg144
g0
(g7
g2
Ntp1990
Rp1991
(dp1992
g11
(dp1993
sg23
S'wu'
p1994
sbsg73
g0
(g7
g2
Ntp1995
Rp1996
(dp1997
g11
(dp1998
g18
g0
(g7
g2
Ntp1999
Rp2000
(dp2001
g11
(dp2002
sg23
S'wei'
p2003
sbsg31
g0
(g7
g2
Ntp2004
Rp2005
(dp2006
g11
(dp2007
g36
g0
(g7
g2
Ntp2008
Rp2009
(dp2010
g11
(dp2011
sg23
S'weng'
p2012
sbssg23
S'wen'
p2013
sbssg23
Nsbsg25
g0
(g7
g2
Ntp2014
Rp2015
(dp2016
g11
(dp2017
sg23
S'wo'
p2018
sbssg23
NsbsS'y'
p2019
g0
(g7
g2
Ntp2020
Rp2021
(dp2022
g11
(dp2023
g13
g0
(g7
g2
Ntp2024
Rp2025
(dp2026
g11
(dp2027
g25
g0
(g7
g2
Ntp2028
Rp2029
(dp2030
g11
(dp2031
sg23
S'yao'
p2032
sbsg31
g0
(g7
g2
Ntp2033
Rp2034
(dp2035
g11
(dp2036
g36
g0
(g7
g2
Ntp2037
Rp2038
(dp2039
g11
(dp2040
sg23
S'yang'
p2041
sbssg23
S'yan'
p2042
sbssg23
S'ya'
p2043
sbsg18
g0
(g7
g2
Ntp2044
Rp2045
(dp2046
g11
(dp2047
g31
g0
(g7
g2
Ntp2048
Rp2049
(dp2050
g11
(dp2051
g36
g0
(g7
g2
Ntp2052
Rp2053
(dp2054
g11
(dp2055
sg23
S'ying'
p2056
sbssg23
S'yin'
p2057
sbssg23
S'yi'
p2058
sbsg73
g0
(g7
g2
Ntp2059
Rp2060
(dp2061
g11
(dp2062
sg23
S'ye'
p2063
sbsg144
g0
(g7
g2
Ntp2064
Rp2065
(dp2066
g11
(dp2067
g13
g0
(g7
g2
Ntp2068
Rp2069
(dp2070
g11
(dp2071
g31
g0
(g7
g2
Ntp2072
Rp2073
(dp2074
g11
(dp2075
sg23
S'yuan'
p2076
sbssg23
Nsbsg73
g0
(g7
g2
Ntp2077
Rp2078
(dp2079
g11
(dp2080
sg23
S'yue'
p2081
sbsg31
g0
(g7
g2
Ntp2082
Rp2083
(dp2084
g11
(dp2085
sg23
S'yun'
p2086
sbssg23
S'yu'
p2087
sbsg25
g0
(g7
g2
Ntp2088
Rp2089
(dp2090
g11
(dp2091
g144
g0
(g7
g2
Ntp2092
Rp2093
(dp2094
g11
(dp2095
sg23
S'you'
p2096
sbsg31
g0
(g7
g2
Ntp2097
Rp2098
(dp2099
g11
(dp2100
g36
g0
(g7
g2
Ntp2101
Rp2102
(dp2103
g11
(dp2104
sg23
S'yong'
p2105
sbssg23
Nsbssg23
S'yo'
p2106
sbssg23
NsbsS'x'
p2107
g0
(g7
g2
Ntp2108
Rp2109
(dp2110
g11
(dp2111
g18
g0
(g7
g2
Ntp2112
Rp2113
(dp2114
g11
(dp2115
g13
g0
(g7
g2
Ntp2116
Rp2117
(dp2118
g11
(dp2119
g25
g0
(g7
g2
Ntp2120
Rp2121
(dp2122
g11
(dp2123
sg23
S'xiao'
p2124
sbsg31
g0
(g7
g2
Ntp2125
Rp2126
(dp2127
g11
(dp2128
g36
g0
(g7
g2
Ntp2129
Rp2130
(dp2131
g11
(dp2132
sg23
S'xiang'
p2133
sbssg23
S'xian'
p2134
sbssg23
S'xia'
p2135
sbsg144
g0
(g7
g2
Ntp2136
Rp2137
(dp2138
g11
(dp2139
sg23
S'xiu'
p2140
sbsg73
g0
(g7
g2
Ntp2141
Rp2142
(dp2143
g11
(dp2144
sg23
S'xie'
p2145
sbsg25
g0
(g7
g2
Ntp2146
Rp2147
(dp2148
g11
(dp2149
g31
g0
(g7
g2
Ntp2150
Rp2151
(dp2152
g11
(dp2153
g36
g0
(g7
g2
Ntp2154
Rp2155
(dp2156
g11
(dp2157
sg23
S'xiong'
p2158
sbssg23
Nsbssg23
Nsbsg31
g0
(g7
g2
Ntp2159
Rp2160
(dp2161
g11
(dp2162
g36
g0
(g7
g2
Ntp2163
Rp2164
(dp2165
g11
(dp2166
sg23
S'xing'
p2167
sbssg23
S'xin'
p2168
sbssg23
S'xi'
p2169
sbsg144
g0
(g7
g2
Ntp2170
Rp2171
(dp2172
g11
(dp2173
g13
g0
(g7
g2
Ntp2174
Rp2175
(dp2176
g11
(dp2177
g31
g0
(g7
g2
Ntp2178
Rp2179
(dp2180
g11
(dp2181
sg23
S'xuan'
p2182
sbssg23
Nsbsg73
g0
(g7
g2
Ntp2183
Rp2184
(dp2185
g11
(dp2186
sg23
S'xue'
p2187
sbsg31
g0
(g7
g2
Ntp2188
Rp2189
(dp2190
g11
(dp2191
sg23
S'xun'
p2192
sbssg23
S'xu'
p2193
sbssg23
NsbsS'z'
p2194
g0
(g7
g2
Ntp2195
Rp2196
(dp2197
g11
(dp2198
g13
g0
(g7
g2
Ntp2199
Rp2200
(dp2201
g11
(dp2202
g18
g0
(g7
g2
Ntp2203
Rp2204
(dp2205
g11
(dp2206
sg23
S'zai'
p2207
sbsg25
g0
(g7
g2
Ntp2208
Rp2209
(dp2210
g11
(dp2211
sg23
S'zao'
p2212
sbsg31
g0
(g7
g2
Ntp2213
Rp2214
(dp2215
g11
(dp2216
g36
g0
(g7
g2
Ntp2217
Rp2218
(dp2219
g11
(dp2220
sg23
S'zang'
p2221
sbssg23
S'zan'
p2222
sbssg23
S'za'
p2223
sbsg73
g0
(g7
g2
Ntp2224
Rp2225
(dp2226
g11
(dp2227
g18
g0
(g7
g2
Ntp2228
Rp2229
(dp2230
g11
(dp2231
sg23
S'zei'
p2232
sbsg31
g0
(g7
g2
Ntp2233
Rp2234
(dp2235
g11
(dp2236
g36
g0
(g7
g2
Ntp2237
Rp2238
(dp2239
g11
(dp2240
sg23
S'zeng'
p2241
sbssg23
S'zen'
p2242
sbssg23
S'ze'
p2243
sbsg18
g0
(g7
g2
Ntp2244
Rp2245
(dp2246
g11
(dp2247
sg23
S'zi'
p2248
sbsg94
g0
(g7
g2
Ntp2249
Rp2250
(dp2251
g11
(dp2252
g13
g0
(g7
g2
Ntp2253
Rp2254
(dp2255
g11
(dp2256
g18
g0
(g7
g2
Ntp2257
Rp2258
(dp2259
g11
(dp2260
sg23
S'zhai'
p2261
sbsg25
g0
(g7
g2
Ntp2262
Rp2263
(dp2264
g11
(dp2265
sg23
S'zhao'
p2266
sbsg31
g0
(g7
g2
Ntp2267
Rp2268
(dp2269
g11
(dp2270
g36
g0
(g7
g2
Ntp2271
Rp2272
(dp2273
g11
(dp2274
sg23
S'zhang'
p2275
sbssg23
S'zhan'
p2276
sbssg23
S'zha'
p2277
sbsg18
g0
(g7
g2
Ntp2278
Rp2279
(dp2280
g11
(dp2281
sg23
S'zhi'
p2282
sbsg73
g0
(g7
g2
Ntp2283
Rp2284
(dp2285
g11
(dp2286
g31
g0
(g7
g2
Ntp2287
Rp2288
(dp2289
g11
(dp2290
g36
g0
(g7
g2
Ntp2291
Rp2292
(dp2293
g11
(dp2294
sg23
S'zheng'
p2295
sbssg23
S'zhen'
p2296
sbssg23
S'zhe'
p2297
sbsg144
g0
(g7
g2
Ntp2298
Rp2299
(dp2300
g11
(dp2301
g13
g0
(g7
g2
Ntp2302
Rp2303
(dp2304
g11
(dp2305
g18
g0
(g7
g2
Ntp2306
Rp2307
(dp2308
g11
(dp2309
sg23
S'zhuai'
p2310
sbsg31
g0
(g7
g2
Ntp2311
Rp2312
(dp2313
g11
(dp2314
g36
g0
(g7
g2
Ntp2315
Rp2316
(dp2317
g11
(dp2318
sg23
S'zhuang'
p2319
sbssg23
S'zhuan'
p2320
sbssg23
S'zhua'
p2321
sbsg18
g0
(g7
g2
Ntp2322
Rp2323
(dp2324
g11
(dp2325
sg23
S'zhui'
p2326
sbsg25
g0
(g7
g2
Ntp2327
Rp2328
(dp2329
g11
(dp2330
sg23
S'zhuo'
p2331
sbsg31
g0
(g7
g2
Ntp2332
Rp2333
(dp2334
g11
(dp2335
sg23
S'zhun'
p2336
sbssg23
S'zhu'
p2337
sbsg25
g0
(g7
g2
Ntp2338
Rp2339
(dp2340
g11
(dp2341
g144
g0
(g7
g2
Ntp2342
Rp2343
(dp2344
g11
(dp2345
sg23
S'zhou'
p2346
sbsg31
g0
(g7
g2
Ntp2347
Rp2348
(dp2349
g11
(dp2350
g36
g0
(g7
g2
Ntp2351
Rp2352
(dp2353
g11
(dp2354
sg23
S'zhong'
p2355
sbssg23
Nsbssg23
Nsbssg23
Nsbsg25
g0
(g7
g2
Ntp2356
Rp2357
(dp2358
g11
(dp2359
g144
g0
(g7
g2
Ntp2360
Rp2361
(dp2362
g11
(dp2363
sg23
S'zou'
p2364
sbsg31
g0
(g7
g2
Ntp2365
Rp2366
(dp2367
g11
(dp2368
g36
g0
(g7
g2
Ntp2369
Rp2370
(dp2371
g11
(dp2372
sg23
S'zong'
p2373
sbssg23
Nsbssg23
Nsbsg144
g0
(g7
g2
Ntp2374
Rp2375
(dp2376
g11
(dp2377
g13
g0
(g7
g2
Ntp2378
Rp2379
(dp2380
g11
(dp2381
g31
g0
(g7
g2
Ntp2382
Rp2383
(dp2384
g11
(dp2385
sg23
S'zuan'
p2386
sbssg23
Nsbsg18
g0
(g7
g2
Ntp2387
Rp2388
(dp2389
g11
(dp2390
sg23
S'zui'
p2391
sbsg25
g0
(g7
g2
Ntp2392
Rp2393
(dp2394
g11
(dp2395
sg23
S'zuo'
p2396
sbsg31
g0
(g7
g2
Ntp2397
Rp2398
(dp2399
g11
(dp2400
sg23
S'zun'
p2401
sbssg23
S'zu'
p2402
sbssg23
Nsbssg23
Nsbsb.